target datalayout = "e-m:e-p270:32:32-p271:32:32-p272:64:64-i64:64-i128:128-f80:128-n8:16:32:64-S128"
target triple = "x86_64-pc-linux-gnu"

@proto_register_multipart.ett = internal global [3 x ptr] [ptr @ett_multipart, ptr @ett_multipart_main, ptr @ett_multipart_body], align 16
@.str.49 = private unnamed_addr constant [35 x i8] c"MIME Multipart Media Encapsulation\00", align 1
@.str.50 = private unnamed_addr constant [15 x i8] c"MIME multipart\00", align 1
@.str.51 = private unnamed_addr constant [15 x i8] c"mime_multipart\00", align 1
@proto_multipart = internal global i32 0, align 4
@.str.52 = private unnamed_addr constant [29 x i8] c"display_unknown_body_as_text\00", align 1
@.str.53 = private unnamed_addr constant [42 x i8] c"Display bodies without media type as text\00", align 1
@.str.54 = private unnamed_addr constant [105 x i8] c"Display multipart bodies with no media type dissector as raw text (may cause problems with binary data).\00", align 1
@display_unknown_body_as_text = internal global i32 0, align 4
@.str.55 = private unnamed_addr constant [23 x i8] c"remove_base64_encoding\00", align 1
@.str.56 = private unnamed_addr constant [35 x i8] c"Remove base64 encoding from bodies\00", align 1
@.str.57 = private unnamed_addr constant [118 x i8] c"Remove any base64 content-transfer encoding from bodies. This supports export of the body and its further dissection.\00", align 1
@remove_base64_encoding = internal global i32 0, align 4
@.str.58 = private unnamed_addr constant [16 x i8] c"uncompress_data\00", align 1
@.str.59 = private unnamed_addr constant [38 x i8] c"Uncompress parts which are compressed\00", align 1
@.str.60 = private unnamed_addr constant [118 x i8] c"Uncompress parts which are compressed. GZIP for example. This supports export of the body and its further dissection.\00", align 1
@uncompress_data = internal global i32 1, align 4
@.str.61 = private unnamed_addr constant [21 x i8] c"multipart_media_type\00", align 1
@.str.62 = private unnamed_addr constant [47 x i8] c"Internet media type (for multipart processing)\00", align 1
@multipart_media_subdissector_table = internal global ptr null, align 8
@multipart_handle = internal global ptr null, align 8

; Function Attrs: nounwind uwtable
define hidden void @proto_register_multipart() #0 {
  %1 = alloca ptr, align 8
  %2 = alloca ptr, align 8
  %3 = call i32 @proto_register_protocol(ptr noundef @.str.49, ptr noundef @.str.50, ptr noundef @.str.51)
  store i32 %3, ptr @proto_multipart, align 4
  %4 = load i32, ptr @proto_multipart, align 4
  call void @proto_register_field_array(i32 noundef %4, ptr noundef @proto_register_multipart.hf, i32 noundef 17)
  call void @proto_register_subtree_array(ptr noundef @proto_register_multipart.ett, i32 noundef 3)
  %5 = load i32, ptr @proto_multipart, align 4
  %6 = call ptr @expert_register_protocol(i32 noundef %5)
  store ptr %6, ptr %2, align 8
  %7 = load ptr, ptr %2, align 8
  call void @expert_register_field_array(ptr noundef %7, ptr noundef @proto_register_multipart.ei, i32 noundef 2)
  %8 = load i32, ptr @proto_multipart, align 4
  %9 = call ptr @prefs_register_protocol(i32 noundef %8, ptr noundef null)
  store ptr %9, ptr %1, align 8
  %10 = load ptr, ptr %1, align 8
  call void @prefs_register_bool_preference(ptr noundef %10, ptr noundef @.str.52, ptr noundef @.str.53, ptr noundef @.str.54, ptr noundef @display_unknown_body_as_text)
  %11 = load ptr, ptr %1, align 8
  call void @prefs_register_bool_preference(ptr noundef %11, ptr noundef @.str.55, ptr noundef @.str.56, ptr noundef @.str.57, ptr noundef @remove_base64_encoding)
  %12 = load ptr, ptr %1, align 8
  call void @prefs_register_bool_preference(ptr noundef %12, ptr noundef @.str.58, ptr noundef @.str.59, ptr noundef @.str.60, ptr noundef @uncompress_data)
  %13 = load i32, ptr @proto_multipart, align 4
  %14 = call ptr @register_dissector_table(ptr noundef @.str.61, ptr noundef @.str.62, i32 noundef %13, i32 noundef 26, i32 noundef 1)
  store ptr %14, ptr @multipart_media_subdissector_table, align 8
  %15 = load i32, ptr @proto_multipart, align 4
  %16 = call ptr @register_dissector(ptr noundef @.str.51, ptr noundef @dissect_multipart, i32 noundef %15)
  store ptr %16, ptr @multipart_handle, align 8
  ret void
}