; Function Attrs: nounwind uwtable
define hidden void @proto_register_multipart() local_unnamed_addr #0 {
  %1 = tail call i32 @proto_register_protocol(ptr noundef nonnull @.str.49, ptr noundef nonnull @.str.50, ptr noundef nonnull @.str.51) #7
  store i32 %1, ptr @proto_multipart, align 4
  tail call void @proto_register_field_array(i32 noundef %1, ptr noundef nonnull @proto_register_multipart.hf, i32 noundef 17) #7
  tail call void @proto_register_subtree_array(ptr noundef nonnull @proto_register_multipart.ett, i32 noundef 3) #7
  %2 = load i32, ptr @proto_multipart, align 4
  %3 = tail call ptr @expert_register_protocol(i32 noundef %2) #7
  tail call void @expert_register_field_array(ptr noundef %3, ptr noundef nonnull @proto_register_multipart.ei, i32 noundef 2) #7
  %4 = load i32, ptr @proto_multipart, align 4
  %5 = tail call ptr @prefs_register_protocol(i32 noundef %4, ptr noundef null) #7
  tail call void @prefs_register_bool_preference(ptr noundef %5, ptr noundef nonnull @.str.52, ptr noundef nonnull @.str.53, ptr noundef nonnull @.str.54, ptr noundef nonnull @display_unknown_body_as_text) #7
  tail call void @prefs_register_bool_preference(ptr noundef %5, ptr noundef nonnull @.str.55, ptr noundef nonnull @.str.56, ptr noundef nonnull @.str.57, ptr noundef nonnull @remove_base64_encoding) #7
  tail call void @prefs_register_bool_preference(ptr noundef %5, ptr noundef nonnull @.str.58, ptr noundef nonnull @.str.59, ptr noundef nonnull @.str.60, ptr noundef nonnull @uncompress_data) #7
  %6 = load i32, ptr @proto_multipart, align 4
  %7 = tail call ptr @register_dissector_table(ptr noundef nonnull @.str.61, ptr noundef nonnull @.str.62, i32 noundef %6, i32 noundef 26, i32 noundef 1) #7
  store ptr %7, ptr @multipart_media_subdissector_table, align 8
  %8 = load i32, ptr @proto_multipart, align 4
  %9 = tail call ptr @register_dissector(ptr noundef nonnull @.str.51, ptr noundef nonnull @dissect_multipart, i32 noundef %8) #7
  store ptr %9, ptr @multipart_handle, align 8
  ret void
}